; Function Attrs: nounwind uwtable
define void @Supp_ManRecycle(ptr noundef readonly captures(none) %0, ptr noundef initializes((0, 8)) %1, i32 noundef %2) local_unnamed_addr #2 {
  %4 = getelementptr inbounds nuw i8, ptr %0, i64 4
  %5 = load i32, ptr %4, align 4
  %6 = sdiv i32 %2, %5
  %7 = srem i32 %2, %5
  %8 = icmp sgt i32 %7, 0
  %9 = zext i1 %8 to i32
  %10 = add nsw i32 %6, %9
  %11 = getelementptr inbounds nuw i8, ptr %0, i64 32
  %12 = load ptr, ptr %11, align 8
  %13 = add nsw i32 %10, 1
  tail call fastcc void @Vec_PtrFillExtra(ptr noundef %12, i32 noundef %13)
  %14 = load ptr, ptr %11, align 8
  %15 = getelementptr i8, ptr %14, i64 8
  %.val = load ptr, ptr %15, align 8
  %16 = sext i32 %10 to i64
  %17 = getelementptr inbounds ptr, ptr %.val, i64 %16
  %18 = load ptr, ptr %17, align 8
  store ptr %18, ptr %1, align 8
  %19 = load ptr, ptr %11, align 8
  %20 = getelementptr i8, ptr %19, i64 8
  %.val9 = load ptr, ptr %20, align 8
  %21 = getelementptr inbounds ptr, ptr %.val9, i64 %16
  store ptr %1, ptr %21, align 8
  ret void
}